target datalayout = "e-m:e-p270:32:32-p271:32:32-p272:64:64-i64:64-i128:128-f80:128-n8:16:32:64-S128"
target triple = "x86_64-pc-linux-gnu"

%class.OopHandle = type { ptr }
%class.Handle = type { ptr }
%class.BaseFrameStream = type { ptr, ptr, %class.Handle, i64 }
%class.frame = type { %union.anon.2, ptr, ptr, ptr, i32, i8, %union.anon.3, %union.anon.4 }
%union.anon.2 = type { ptr }
%union.anon.3 = type { ptr }
%union.anon.4 = type { ptr }
%class.LiveFrameStream = type { %class.BaseFrameStream, %class.Handle, ptr, ptr, ptr }
%class.JavaThread = type { %class.Thread, i8, %class.OopHandle, %class.OopHandle, %class.OopHandle, %class.OopHandle, %class.JavaFrameAnchor, ptr, %struct.JNIEnv_, ptr, ptr, ptr, ptr, ptr, ptr, ptr, ptr, %class.MemRegion, ptr, i8, ptr, ptr, ptr, i32, i32, %"struct.SafepointMechanism::ThreadData", ptr, ptr, i32, i32, i8, i8, i8, i8, i8, i8, i8, i32, i8, i32, i8, i8, i64, %union.anon, ptr, ptr, i64, i64, ptr, ptr, %class.StackOverflow, ptr, ptr, ptr, i32, i32, ptr, i32, i32, i32, ptr, ptr, i32, i64, i64, %class.StackWatermarks, %class.HandshakeState, ptr, i32, ptr, i32, i32, ptr, %class.Parker, ptr, ptr, %class.LockStack }
%class.Thread = type { %class.ThreadShadow.base, i64, [43 x i64], ptr, ptr, i32, ptr, i64, i64, %class.ThreadLocalAllocBuffer, i64, %class.ThreadHeapSampler, %class.ThreadStatisticalInfo, %class.JfrThreadLocal, ptr, ptr, ptr, ptr, ptr, ptr, i64, i32, i32, ptr, i32, i32, i32, i32, i8, ptr }
%class.ThreadShadow.base = type <{ ptr, ptr, ptr, i32 }>
%class.ThreadLocalAllocBuffer = type <{ ptr, ptr, ptr, ptr, ptr, i64, i64, i64, i64, i32, i32, i32, i32, i64, %class.AdaptiveWeightedAverage, [4 x i8] }>
%class.AdaptiveWeightedAverage = type { float, i32, i32, i8, float }
%class.ThreadHeapSampler = type { i64 }
%class.ThreadStatisticalInfo = type { i64, i64 }
%class.JfrThreadLocal = type <{ ptr, ptr, ptr, ptr, ptr, ptr, ptr, ptr, ptr, ptr, %class.RefCountHandle, i64, i64, i64, i64, i64, i64, i64, i64, i64, i64, i64, i32, i32, i32, i16, i8, i8, i8, i8, i8, [5 x i8] }>
%class.RefCountHandle = type { ptr }
%class.JavaFrameAnchor = type { ptr, ptr, ptr }
%struct.JNIEnv_ = type { ptr }
%class.MemRegion = type { ptr, i64 }
%"struct.SafepointMechanism::ThreadData" = type { i64, i64 }
%union.anon = type { ptr }
%class.StackOverflow = type { i32, ptr, ptr, ptr, ptr, ptr, ptr }
%class.StackWatermarks = type { ptr }
%class.HandshakeState = type <{ ptr, %class.FilterQueue, %class.Monitor, ptr, i8, i8, i8, [5 x i8] }>
%class.FilterQueue = type { ptr }
%class.Monitor = type { %class.Mutex }
%class.Mutex = type { ptr, %class.PlatformMonitor, ptr }
%class.PlatformMonitor = type { %class.PlatformMutex, %union.pthread_cond_t }
%class.PlatformMutex = type { %union.pthread_mutex_t }
%union.pthread_mutex_t = type { %struct.__pthread_mutex_s }
%struct.__pthread_mutex_s = type { i32, i32, i32, i32, i32, i16, i16, %struct.__pthread_internal_list }
%struct.__pthread_internal_list = type { ptr, ptr }
%union.pthread_cond_t = type { %struct.__pthread_cond_s }
%struct.__pthread_cond_s = type { %union.__atomic_wide_counter, %union.__atomic_wide_counter, [2 x i32], [2 x i32], i32, i32, [2 x i32] }
%union.__atomic_wide_counter = type { i64 }
%class.Parker = type { %class.PlatformParker }
%class.PlatformParker = type { i32, i32, [1 x %union.pthread_mutex_t], [2 x %union.pthread_cond_t] }
%class.LockStack = type { i32, i64, [8 x ptr] }

; Function Attrs: mustprogress nounwind uwtable
define linkonce_odr hidden void @_ZN10JavaThread10last_frameEv(ptr dead_on_unwind noalias writable sret(%class.frame) align 8 %0, ptr noundef nonnull align 8 dereferenceable(1800) %1) #1 comdat align 2 {
  %3 = alloca ptr, align 8
  store ptr %1, ptr %3, align 8
  %4 = load ptr, ptr %3, align 8
  %5 = getelementptr inbounds %class.JavaThread, ptr %4, i32 0, i32 6
  call void @_ZN15JavaFrameAnchor13make_walkableEv(ptr noundef nonnull align 8 dereferenceable(24) %5)
  call void @_ZN10JavaThread13pd_last_frameEv(ptr dead_on_unwind writable sret(%class.frame) align 8 %0, ptr noundef nonnull align 8 dereferenceable(1800) %4)
  ret void
}

; Function Attrs: mustprogress nounwind uwtable
define linkonce_odr hidden noundef ptr @_ZNK10JavaThread17last_continuationEv(ptr noundef nonnull align 8 dereferenceable(1800) %0) #1 comdat align 2 {
  %2 = alloca ptr, align 8
  store ptr %0, ptr %2, align 8
  %3 = load ptr, ptr %2, align 8
  %4 = getelementptr inbounds %class.JavaThread, ptr %3, i32 0, i32 60
  %5 = load ptr, ptr %4, align 8
  ret ptr %5
}

; Function Attrs: mustprogress nounwind uwtable
define linkonce_odr hidden noundef ptr @_ZN10JavaThread16last_java_vframeEP11RegisterMap(ptr noundef nonnull align 8 dereferenceable(1800) %0, ptr noundef %1) #1 comdat align 2 {
  %3 = alloca ptr, align 8
  %4 = alloca ptr, align 8
  %5 = alloca %class.frame, align 8
  store ptr %0, ptr %3, align 8
  store ptr %1, ptr %4, align 8
  %6 = load ptr, ptr %3, align 8
  call void @_ZN10JavaThread10last_frameEv(ptr dead_on_unwind writable sret(%class.frame) align 8 %5, ptr noundef nonnull align 8 dereferenceable(1800) %6)
  %7 = load ptr, ptr %4, align 8
  %8 = call noundef ptr @_ZN10JavaThread16last_java_vframeE5frameP11RegisterMap(ptr noundef nonnull align 8 dereferenceable(1800) %6, ptr noundef byval(%class.frame) align 8 %5, ptr noundef %7)
  ret ptr %8
}

; Function Attrs: mustprogress nounwind uwtable
define linkonce_odr hidden noundef zeroext i1 @_ZNK6Handle7is_nullEv(ptr noundef nonnull align 8 dereferenceable(8) %0) #1 comdat align 2 {
  %2 = alloca ptr, align 8
  store ptr %0, ptr %2, align 8
  %3 = load ptr, ptr %2, align 8
  %4 = getelementptr inbounds %class.Handle, ptr %3, i32 0, i32 0
  %5 = load ptr, ptr %4, align 8
  %6 = icmp eq ptr %5, null
  ret i1 %6
}

; Function Attrs: mustprogress nounwind uwtable
define hidden void @_ZN15BaseFrameStreamC2EP10JavaThread6Handle(ptr noundef nonnull align 8 dereferenceable(32) %0, ptr noundef %1, ptr %2) unnamed_addr #1 align 2 {
  %4 = alloca %class.Handle, align 8
  %5 = alloca ptr, align 8
  %6 = alloca ptr, align 8
  %7 = getelementptr inbounds %class.Handle, ptr %4, i32 0, i32 0
  store ptr %2, ptr %7, align 8
  store ptr %0, ptr %5, align 8
  store ptr %1, ptr %6, align 8
  %8 = load ptr, ptr %5, align 8
  store ptr getelementptr inbounds inrange(-16, 56) ({ [9 x ptr] }, ptr @_ZTV15BaseFrameStream, i32 0, i32 0, i32 2), ptr %8, align 8
  %9 = getelementptr inbounds %class.BaseFrameStream, ptr %8, i32 0, i32 1
  %10 = load ptr, ptr %6, align 8
  store ptr %10, ptr %9, align 8
  %11 = getelementptr inbounds %class.BaseFrameStream, ptr %8, i32 0, i32 2
  call void @llvm.memcpy.p0.p0.i64(ptr align 8 %11, ptr align 8 %4, i64 8, i1 false)
  %12 = getelementptr inbounds %class.BaseFrameStream, ptr %8, i32 0, i32 3
  store i64 0, ptr %12, align 8
  ret void
}

; Function Attrs: mustprogress nounwind uwtable
define hidden void @_ZN15LiveFrameStreamC2EP10JavaThreadP11RegisterMap6HandleS4_(ptr noundef nonnull align 8 dereferenceable(64) %0, ptr noundef %1, ptr noundef %2, ptr %3, ptr %4) unnamed_addr #1 align 2 {
  %6 = alloca %class.Handle, align 8
  %7 = alloca %class.Handle, align 8
  %8 = alloca ptr, align 8
  %9 = alloca ptr, align 8
  %10 = alloca ptr, align 8
  %11 = alloca %class.Handle, align 8
  %12 = alloca %class.Handle, align 8
  %13 = getelementptr inbounds %class.Handle, ptr %6, i32 0, i32 0
  store ptr %3, ptr %13, align 8
  %14 = getelementptr inbounds %class.Handle, ptr %7, i32 0, i32 0
  store ptr %4, ptr %14, align 8
  store ptr %0, ptr %8, align 8
  store ptr %1, ptr %9, align 8
  store ptr %2, ptr %10, align 8
  %15 = load ptr, ptr %8, align 8
  %16 = load ptr, ptr %9, align 8
  call void @llvm.memcpy.p0.p0.i64(ptr align 8 %11, ptr align 8 %7, i64 8, i1 false)
  %17 = getelementptr inbounds %class.Handle, ptr %11, i32 0, i32 0
  %18 = load ptr, ptr %17, align 8
  call void @_ZN15BaseFrameStreamC2EP10JavaThread6Handle(ptr noundef nonnull align 8 dereferenceable(32) %15, ptr noundef %16, ptr %18)
  store ptr getelementptr inbounds inrange(-16, 56) ({ [9 x ptr] }, ptr @_ZTV15LiveFrameStream, i32 0, i32 0, i32 2), ptr %15, align 8
  %19 = getelementptr inbounds %class.LiveFrameStream, ptr %15, i32 0, i32 1
  call void @llvm.memcpy.p0.p0.i64(ptr align 8 %19, ptr align 8 %6, i64 8, i1 false)
  %20 = load ptr, ptr %10, align 8
  %21 = getelementptr inbounds %class.LiveFrameStream, ptr %15, i32 0, i32 2
  store ptr %20, ptr %21, align 8
  %22 = call noundef zeroext i1 @_ZNK6Handle7is_nullEv(ptr noundef nonnull align 8 dereferenceable(8) %7)
  br i1 %22, label %23, label %31

23:                                               ; preds = %5
  %24 = load ptr, ptr %9, align 8
  %25 = load ptr, ptr %10, align 8
  %26 = call noundef ptr @_ZN10JavaThread16last_java_vframeEP11RegisterMap(ptr noundef nonnull align 8 dereferenceable(1800) %24, ptr noundef %25)
  %27 = getelementptr inbounds %class.LiveFrameStream, ptr %15, i32 0, i32 3
  store ptr %26, ptr %27, align 8
  %28 = load ptr, ptr %9, align 8
  %29 = call noundef ptr @_ZNK10JavaThread17last_continuationEv(ptr noundef nonnull align 8 dereferenceable(1800) %28)
  %30 = getelementptr inbounds %class.LiveFrameStream, ptr %15, i32 0, i32 4
  store ptr %29, ptr %30, align 8
  br label %38

31:                                               ; preds = %5
  call void @llvm.memcpy.p0.p0.i64(ptr align 8 %12, ptr align 8 %7, i64 8, i1 false)
  %32 = load ptr, ptr %10, align 8
  %33 = getelementptr inbounds %class.Handle, ptr %12, i32 0, i32 0
  %34 = load ptr, ptr %33, align 8
  %35 = call noundef ptr @_ZN12Continuation16last_java_vframeE6HandleP11RegisterMap(ptr %34, ptr noundef %32)
  %36 = getelementptr inbounds %class.LiveFrameStream, ptr %15, i32 0, i32 3
  store ptr %35, ptr %36, align 8
  %37 = getelementptr inbounds %class.LiveFrameStream, ptr %15, i32 0, i32 4
  store ptr null, ptr %37, align 8
  br label %38

38:                                               ; preds = %31, %23
  ret void
}