; Function Attrs: mustprogress nounwind uwtable
define hidden void @_ZN15LiveFrameStreamC2EP10JavaThreadP11RegisterMap6HandleS4_(ptr nocapture noundef nonnull writeonly align 8 dereferenceable(64) %0, ptr noundef %1, ptr noundef %2, ptr %3, ptr %4) unnamed_addr #2 align 2 {
  %6 = alloca %class.frame, align 8
  %7 = getelementptr inbounds i8, ptr %0, i64 8
  store ptr %1, ptr %7, align 8
  %8 = getelementptr inbounds i8, ptr %0, i64 16
  store ptr %4, ptr %8, align 8
  %9 = getelementptr inbounds i8, ptr %0, i64 24
  store i64 0, ptr %9, align 8
  store ptr getelementptr inbounds inrange(-16, 56) (i8, ptr @_ZTV15LiveFrameStream, i64 16), ptr %0, align 8
  %10 = getelementptr inbounds i8, ptr %0, i64 32
  store ptr %3, ptr %10, align 8
  %11 = getelementptr inbounds i8, ptr %0, i64 40
  store ptr %2, ptr %11, align 8
  %12 = icmp eq ptr %4, null
  br i1 %12, label %13, label %19

13:                                               ; preds = %5
  call void @llvm.lifetime.start.p0(i64 56, ptr nonnull %6)
  %14 = getelementptr inbounds i8, ptr %1, i64 928
  tail call void @_ZN15JavaFrameAnchor13make_walkableEv(ptr noundef nonnull align 8 dereferenceable(24) %14) #14, !noalias !6
  call void @_ZN10JavaThread13pd_last_frameEv(ptr dead_on_unwind nonnull writable sret(%class.frame) align 8 %6, ptr noundef nonnull align 8 dereferenceable(1800) %1) #14
  %15 = call noundef ptr @_ZN10JavaThread16last_java_vframeE5frameP11RegisterMap(ptr noundef nonnull align 8 dereferenceable(1800) %1, ptr noundef nonnull byval(%class.frame) align 8 %6, ptr noundef %2) #14
  call void @llvm.lifetime.end.p0(i64 56, ptr nonnull %6)
  %16 = getelementptr inbounds i8, ptr %0, i64 48
  store ptr %15, ptr %16, align 8
  %17 = getelementptr inbounds i8, ptr %1, i64 1336
  %18 = load ptr, ptr %17, align 8
  br label %22

19:                                               ; preds = %5
  %20 = tail call noundef ptr @_ZN12Continuation16last_java_vframeE6HandleP11RegisterMap(ptr nonnull %4, ptr noundef %2) #14
  %21 = getelementptr inbounds i8, ptr %0, i64 48
  store ptr %20, ptr %21, align 8
  br label %22

22:                                               ; preds = %19, %13
  %.sink = phi ptr [ %18, %13 ], [ null, %19 ]
  %23 = getelementptr inbounds i8, ptr %0, i64 56
  store ptr %.sink, ptr %23, align 8
  ret void
}